; Function Attrs: nounwind uwtable
define ptr @X509V3_EXT_nconf_nid(ptr noundef %0, ptr noundef %1, i32 noundef %2, ptr noundef %3) local_unnamed_addr #0 {
  %5 = tail call i32 @strncmp(ptr noundef nonnull dereferenceable(1) %3, ptr noundef nonnull dereferenceable(10) @.str.7, i64 noundef 9) #5
  %6 = icmp eq i32 %5, 0
  br i1 %6, label %7, label %v3_check_critical.exit

7:                                                ; preds = %4
  %8 = getelementptr inbounds nuw i8, ptr %3, i64 9
  br label %9

9:                                                ; preds = %9, %7
  %.0.i = phi ptr [ %8, %7 ], [ %13, %9 ]
  %10 = load i8, ptr %.0.i, align 1, !tbaa !3
  %11 = sext i8 %10 to i32
  %12 = tail call i32 @ossl_ctype_check(i32 noundef %11, i32 noundef 8) #6
  %.not.i = icmp eq i32 %12, 0
  %13 = getelementptr inbounds nuw i8, ptr %.0.i, i64 1
  br i1 %.not.i, label %v3_check_critical.exit, label %9, !llvm.loop !6

v3_check_critical.exit:                           ; preds = %9, %4
  %.013 = phi ptr [ %3, %4 ], [ %.0.i, %9 ]
  %.07.i = phi i32 [ 0, %4 ], [ 1, %9 ]
  %14 = tail call i32 @strncmp(ptr noundef nonnull dereferenceable(1) %.013, ptr noundef nonnull dereferenceable(5) @.str.8, i64 noundef 4) #5
  %15 = icmp eq i32 %14, 0
  br i1 %15, label %19, label %16

16:                                               ; preds = %v3_check_critical.exit
  %17 = tail call i32 @strncmp(ptr noundef nonnull dereferenceable(1) %.013, ptr noundef nonnull dereferenceable(6) @.str.9, i64 noundef 5) #5
  %18 = icmp eq i32 %17, 0
  br i1 %18, label %19, label %28

19:                                               ; preds = %16, %v3_check_critical.exit
  %.sink.i = phi i64 [ 4, %v3_check_critical.exit ], [ 5, %16 ]
  %.010.i = phi i32 [ 1, %v3_check_critical.exit ], [ 2, %16 ]
  %20 = getelementptr inbounds nuw i8, ptr %.013, i64 %.sink.i
  br label %21

21:                                               ; preds = %21, %19
  %.1.i = phi ptr [ %20, %19 ], [ %25, %21 ]
  %22 = load i8, ptr %.1.i, align 1, !tbaa !3
  %23 = sext i8 %22 to i32
  %24 = tail call i32 @ossl_ctype_check(i32 noundef %23, i32 noundef 8) #6
  %.not.i9 = icmp eq i32 %24, 0
  %25 = getelementptr inbounds nuw i8, ptr %.1.i, i64 1
  br i1 %.not.i9, label %v3_check_generic.exit, label %21, !llvm.loop !8

v3_check_generic.exit:                            ; preds = %21
  %26 = tail call ptr @OBJ_nid2sn(i32 noundef %2) #6
  %27 = tail call fastcc ptr @v3_generic_extension(ptr noundef %26, ptr noundef nonnull %.1.i, i32 noundef %.07.i, i32 noundef %.010.i, ptr noundef %1)
  br label %30

28:                                               ; preds = %16
  %29 = tail call fastcc ptr @do_ext_nconf(ptr noundef %0, ptr noundef %1, i32 noundef %2, i32 noundef %.07.i, ptr noundef nonnull %.013)
  br label %30

30:                                               ; preds = %28, %v3_check_generic.exit
  %.0 = phi ptr [ %27, %v3_check_generic.exit ], [ %29, %28 ]
  ret ptr %.0
}